; Function Attrs: mustprogress uwtable
define void @_ZNK6marisa4Trie5writeEi(ptr noundef nonnull readonly align 8 captures(none) dereferenceable(8) %0, i32 noundef %1) local_unnamed_addr #5 align 2 personality ptr @__gxx_personality_v0 {
  %3 = alloca %"class.marisa::grimoire::io::Writer", align 8
  %4 = load ptr, ptr %0, align 8, !tbaa !3
  %5 = icmp eq ptr %4, null
  br i1 %5, label %6, label %12

6:                                                ; preds = %2
  %7 = tail call ptr @__cxa_allocate_exception(i64 32) #12
  store ptr getelementptr inbounds nuw inrange(-16, 24) (i8, ptr @_ZTVN6marisa9ExceptionE, i64 16), ptr %7, align 8, !tbaa !9
  %8 = getelementptr inbounds nuw i8, ptr %7, i64 8
  store ptr @.str, ptr %8, align 8, !tbaa !11
  %9 = getelementptr inbounds nuw i8, ptr %7, i64 16
  store i32 78, ptr %9, align 8, !tbaa !17
  %10 = getelementptr inbounds nuw i8, ptr %7, i64 20
  store i32 1, ptr %10, align 4, !tbaa !18
  %11 = getelementptr inbounds nuw i8, ptr %7, i64 24
  store ptr @.str.12, ptr %11, align 8, !tbaa !19
  tail call void @__cxa_throw(ptr nonnull %7, ptr nonnull @_ZTIN6marisa9ExceptionE, ptr nonnull @_ZNSt9exceptionD2Ev) #15
  unreachable

12:                                               ; preds = %2
  %13 = icmp eq i32 %1, -1
  br i1 %13, label %14, label %20

14:                                               ; preds = %12
  %15 = tail call ptr @__cxa_allocate_exception(i64 32) #12
  store ptr getelementptr inbounds nuw inrange(-16, 24) (i8, ptr @_ZTVN6marisa9ExceptionE, i64 16), ptr %15, align 8, !tbaa !9
  %16 = getelementptr inbounds nuw i8, ptr %15, i64 8
  store ptr @.str, ptr %16, align 8, !tbaa !11
  %17 = getelementptr inbounds nuw i8, ptr %15, i64 16
  store i32 79, ptr %17, align 8, !tbaa !17
  %18 = getelementptr inbounds nuw i8, ptr %15, i64 20
  store i32 5, ptr %18, align 4, !tbaa !18
  %19 = getelementptr inbounds nuw i8, ptr %15, i64 24
  store ptr @.str.13, ptr %19, align 8, !tbaa !19
  tail call void @__cxa_throw(ptr nonnull %15, ptr nonnull @_ZTIN6marisa9ExceptionE, ptr nonnull @_ZNSt9exceptionD2Ev) #15
  unreachable

20:                                               ; preds = %12
  call void @llvm.lifetime.start.p0(i64 32, ptr nonnull %3) #12
  call void @_ZN6marisa8grimoire2io6WriterC1Ev(ptr noundef nonnull align 8 dereferenceable(25) %3)
  invoke void @_ZN6marisa8grimoire2io6Writer4openEi(ptr noundef nonnull align 8 dereferenceable(25) %3, i32 noundef %1)
          to label %21 unwind label %24

21:                                               ; preds = %20
  %22 = load ptr, ptr %0, align 8, !tbaa !3
  invoke void @_ZNK6marisa8grimoire4trie9LoudsTrie5writeERNS0_2io6WriterE(ptr noundef nonnull align 8 dereferenceable(1136) %22, ptr noundef nonnull align 8 dereferenceable(25) %3)
          to label %23 unwind label %24

23:                                               ; preds = %21
  call void @_ZN6marisa8grimoire2io6WriterD1Ev(ptr noundef nonnull align 8 dereferenceable(25) %3) #12
  call void @llvm.lifetime.end.p0(i64 32, ptr nonnull %3) #12
  ret void

24:                                               ; preds = %21, %20
  %25 = landingpad { ptr, i32 }
          cleanup
  call void @_ZN6marisa8grimoire2io6WriterD1Ev(ptr noundef nonnull align 8 dereferenceable(25) %3) #12
  call void @llvm.lifetime.end.p0(i64 32, ptr nonnull %3) #12
  resume { ptr, i32 } %25
}